; Function Attrs: mustprogress uwtable
define { i64, i64 } @_ZNK6casadi8Function7size_inEx(ptr noundef nonnull align 8 dereferenceable(8) %0, i64 noundef %1) local_unnamed_addr #4 align 2 {
  %3 = tail call noundef ptr @_ZNK6casadi8FunctionptEv(ptr noundef nonnull align 8 dereferenceable(8) %0)
  %4 = getelementptr inbounds nuw i8, ptr %3, i64 272
  %5 = getelementptr inbounds nuw i8, ptr %3, i64 280
  %6 = load ptr, ptr %5, align 8, !tbaa !174
  %7 = load ptr, ptr %4, align 8, !tbaa !173
  %8 = ptrtoint ptr %6 to i64
  %9 = ptrtoint ptr %7 to i64
  %10 = sub i64 %8, %9
  %11 = ashr exact i64 %10, 3
  %.not.i.i.i.i = icmp ult i64 %1, %11
  br i1 %.not.i.i.i.i, label %_ZNK6casadi16FunctionInternal7size_inEx.exit, label %12

12:                                               ; preds = %2
  tail call void (ptr, ...) @_ZSt24__throw_out_of_range_fmtPKcz(ptr noundef nonnull @.str.291, i64 noundef %1, i64 noundef %11) #29
  unreachable

_ZNK6casadi16FunctionInternal7size_inEx.exit:     ; preds = %2
  %13 = getelementptr inbounds nuw %"class.casadi::Sparsity", ptr %7, i64 %1
  %14 = tail call { i64, i64 } @_ZNK6casadi8Sparsity4sizeEv(ptr noundef nonnull align 8 dereferenceable(8) %13)
  ret { i64, i64 } %14
}